; Function Attrs: nounwind uwtable
define ptr @l_Lean_ofExceptKernelException___at_Lean_mkCasesOn___spec__1(ptr noundef %0, ptr noundef %1, ptr noundef %2, ptr noundef %3, ptr noundef %4, ptr noundef %5) local_unnamed_addr #0 {
  %7 = ptrtoint ptr %0 to i64
  %8 = and i64 %7, 1
  %.not.i28 = icmp eq i64 %8, 0
  br i1 %.not.i28, label %12, label %9

9:                                                ; preds = %6
  %10 = lshr i64 %7, 1
  %11 = trunc i64 %10 to i32
  br label %lean_obj_tag.exit

12:                                               ; preds = %6
  %13 = getelementptr i8, ptr %0, i64 4
  %.val.i = load i32, ptr %13, align 4
  %14 = lshr i32 %.val.i, 24
  br label %lean_obj_tag.exit

lean_obj_tag.exit:                                ; preds = %9, %12
  %.0.i = phi i32 [ %11, %9 ], [ %14, %12 ]
  %15 = icmp eq i32 %.0.i, 0
  br i1 %15, label %16, label %35

16:                                               ; preds = %lean_obj_tag.exit
  %17 = getelementptr inbounds nuw i8, ptr %0, i64 8
  %18 = load ptr, ptr %17, align 8, !tbaa !10
  %19 = ptrtoint ptr %18 to i64
  %20 = and i64 %19, 1
  %.not36 = icmp eq i64 %20, 0
  br i1 %.not36, label %21, label %lean_inc.exit23

21:                                               ; preds = %16
  %.val.i29 = load i32, ptr %18, align 4, !tbaa !4
  %22 = icmp sgt i32 %.val.i29, 0
  br i1 %22, label %23, label %25, !prof !9

23:                                               ; preds = %21
  %24 = add nuw i32 %.val.i29, 1
  store i32 %24, ptr %18, align 4, !tbaa !4
  br label %lean_inc.exit23

25:                                               ; preds = %21
  %.not.i30 = icmp eq i32 %.val.i29, 0
  br i1 %.not.i30, label %lean_inc.exit23, label %26

26:                                               ; preds = %25
  tail call void @lean_inc_ref_cold(ptr noundef nonnull %18) #4
  br label %lean_inc.exit23

lean_inc.exit23:                                  ; preds = %26, %25, %23, %16
  br i1 %.not.i28, label %27, label %lean_dec.exit22

27:                                               ; preds = %lean_inc.exit23
  %28 = load i32, ptr %0, align 4, !tbaa !4
  %29 = icmp sgt i32 %28, 1
  br i1 %29, label %30, label %32, !prof !9

30:                                               ; preds = %27
  %31 = add nsw i32 %28, -1
  store i32 %31, ptr %0, align 4, !tbaa !4
  br label %lean_dec.exit22

32:                                               ; preds = %27
  %.not.i = icmp eq i32 %28, 0
  br i1 %.not.i, label %lean_dec.exit22, label %33

33:                                               ; preds = %32
  tail call void @lean_dec_ref_cold(ptr noundef nonnull %0) #4
  br label %lean_dec.exit22

lean_dec.exit22:                                  ; preds = %33, %32, %30, %lean_inc.exit23
  %34 = tail call ptr @l_Lean_throwKernelException___at_Lean_mkCasesOn___spec__2(ptr noundef %18, ptr noundef %1, ptr noundef %2, ptr noundef %3, ptr noundef %4, ptr noundef %5)
  br label %68

35:                                               ; preds = %lean_obj_tag.exit
  %36 = ptrtoint ptr %3 to i64
  %37 = and i64 %36, 1
  %.not = icmp eq i64 %37, 0
  br i1 %.not, label %38, label %lean_dec.exit21

38:                                               ; preds = %35
  %39 = load i32, ptr %3, align 4, !tbaa !4
  %40 = icmp sgt i32 %39, 1
  br i1 %40, label %41, label %43, !prof !9

41:                                               ; preds = %38
  %42 = add nsw i32 %39, -1
  store i32 %42, ptr %3, align 4, !tbaa !4
  br label %lean_dec.exit21

43:                                               ; preds = %38
  %.not.i24 = icmp eq i32 %39, 0
  br i1 %.not.i24, label %lean_dec.exit21, label %44

44:                                               ; preds = %43
  tail call void @lean_dec_ref_cold(ptr noundef nonnull %3) #4
  br label %lean_dec.exit21

lean_dec.exit21:                                  ; preds = %44, %43, %41, %35
  %45 = getelementptr inbounds nuw i8, ptr %0, i64 8
  %46 = load ptr, ptr %45, align 8, !tbaa !10
  %47 = ptrtoint ptr %46 to i64
  %48 = and i64 %47, 1
  %.not34 = icmp eq i64 %48, 0
  br i1 %.not34, label %49, label %lean_inc.exit

49:                                               ; preds = %lean_dec.exit21
  %.val.i31 = load i32, ptr %46, align 4, !tbaa !4
  %50 = icmp sgt i32 %.val.i31, 0
  br i1 %50, label %51, label %53, !prof !9

51:                                               ; preds = %49
  %52 = add nuw i32 %.val.i31, 1
  store i32 %52, ptr %46, align 4, !tbaa !4
  br label %lean_inc.exit

53:                                               ; preds = %49
  %.not.i32 = icmp eq i32 %.val.i31, 0
  br i1 %.not.i32, label %lean_inc.exit, label %54

54:                                               ; preds = %53
  tail call void @lean_inc_ref_cold(ptr noundef nonnull %46) #4
  br label %lean_inc.exit

lean_inc.exit:                                    ; preds = %54, %53, %51, %lean_dec.exit21
  br i1 %.not.i28, label %55, label %lean_dec.exit

55:                                               ; preds = %lean_inc.exit
  %56 = load i32, ptr %0, align 4, !tbaa !4
  %57 = icmp sgt i32 %56, 1
  br i1 %57, label %58, label %60, !prof !9

58:                                               ; preds = %55
  %59 = add nsw i32 %56, -1
  store i32 %59, ptr %0, align 4, !tbaa !4
  br label %lean_dec.exit

60:                                               ; preds = %55
  %.not.i26 = icmp eq i32 %56, 0
  br i1 %.not.i26, label %lean_dec.exit, label %61

61:                                               ; preds = %60
  tail call void @lean_dec_ref_cold(ptr noundef nonnull %0) #4
  br label %lean_dec.exit

lean_dec.exit:                                    ; preds = %61, %60, %58, %lean_inc.exit
  tail call void @lean_inc_heartbeat() #4
  %62 = tail call noalias ptr @mi_malloc_small(i64 noundef 24) #4
  %63 = icmp eq ptr %62, null
  br i1 %63, label %64, label %lean_alloc_ctor.exit

64:                                               ; preds = %lean_dec.exit
  tail call void @lean_internal_panic_out_of_memory() #5
  unreachable

lean_alloc_ctor.exit:                             ; preds = %lean_dec.exit
  %65 = getelementptr inbounds nuw i8, ptr %62, i64 4
  store i32 1, ptr %62, align 4, !tbaa !4
  store i32 131096, ptr %65, align 4
  %66 = getelementptr inbounds nuw i8, ptr %62, i64 8
  store ptr %46, ptr %66, align 8, !tbaa !10
  %67 = getelementptr inbounds nuw i8, ptr %62, i64 16
  store ptr %5, ptr %67, align 8, !tbaa !10
  br label %68

68:                                               ; preds = %lean_alloc_ctor.exit, %lean_dec.exit22
  %.0 = phi ptr [ %34, %lean_dec.exit22 ], [ %62, %lean_alloc_ctor.exit ]
  ret ptr %.0
}